; Function Attrs: nounwind uwtable
define hidden noundef zeroext i1 @SDL_AudioDeviceFormatChanged(ptr noundef %0, ptr noundef readonly captures(none) %1, i32 noundef %2) local_unnamed_addr #0 {
  %.not.i = icmp eq ptr %0, null
  br i1 %.not.i, label %ObtainPhysicalAudioDeviceObj.exit, label %4

4:                                                ; preds = %3
  %5 = getelementptr inbounds nuw i8, ptr %0, i64 16
  %6 = tail call i32 @SDL_AddAtomicInt_REAL(ptr noundef nonnull %5, i32 noundef 1) #14
  %7 = load ptr, ptr %0, align 8
  tail call void @SDL_LockMutex_REAL(ptr noundef %7) #14
  br label %ObtainPhysicalAudioDeviceObj.exit

ObtainPhysicalAudioDeviceObj.exit:                ; preds = %3, %4
  %8 = tail call zeroext i1 @SDL_AudioDeviceFormatChangedAlreadyLocked(ptr noundef %0, ptr noundef %1, i32 noundef %2)
  tail call fastcc void @ReleaseAudioDevice(ptr noundef %0)
  ret i1 %8
}